#include <math.h>
#include <stdio.h>
#include <stdlib.h>
#include <string.h>

void main()
{
	int n,k,i;
	int a[200];
	scanf("%d%d",&n,&k);
	for(i=0;i<n;i++)
	{
		scanf("%d",&a[i]);
	}
	for(i=0;i<n;i++)
	{
		if(i>=0&&i<=(n-k-1))
		{
			a[i+100]=a[i];
		}
	    else if(i>=(n-k)&&i<=(n-1)) 
		{
		    a[i-n+k]=a[i];
		}
	}
	for(i=0;i<k;i++)
	{
		printf("%d ",a[i]);
	}
	for(i=100;i<=n-k+98;i++)
	{
		printf("%d ",a[i]);
	}
	printf("%d",a[n-k+99]);
}
